; Function Attrs: mustprogress nofree norecurse nosync nounwind willreturn memory(read, inaccessiblemem: none) uwtable
define internal range(i32 0, 34) i32 @hca_probe(ptr noundef readonly captures(none) %0) #0 {
  %2 = getelementptr inbounds nuw i8, ptr %0, i64 8
  %3 = load ptr, ptr %2, align 8, !tbaa !4
  %4 = load i32, ptr %3, align 1, !tbaa !11
  %5 = and i32 %4, 2139062143
  %.not = icmp eq i32 %5, 4277064
  br i1 %.not, label %6, label %10

6:                                                ; preds = %1
  %7 = getelementptr inbounds nuw i8, ptr %3, i64 8
  %8 = load i32, ptr %7, align 1, !tbaa !11
  %9 = and i32 %8, 2139062143
  %.not2 = icmp eq i32 %9, 7630182
  %. = select i1 %.not2, i32 33, i32 0
  br label %10

10:                                               ; preds = %6, %1
  %.0 = phi i32 [ 0, %1 ], [ %., %6 ]
  ret i32 %.0
}